target datalayout = "e-m:e-p270:32:32-p271:32:32-p272:64:64-i64:64-i128:128-f80:128-n8:16:32:64-S128"
target triple = "x86_64-pc-linux-gnu"

; Function Attrs: mustprogress nounwind uwtable
define linkonce_odr hidden void @_ZN8XBarrier25mark_barrier_on_oop_arrayEPVP7oopDescmb(ptr noundef %0, i64 noundef %1, i1 noundef zeroext %2) #1 comdat align 2 {
  %4 = alloca ptr, align 8
  %5 = alloca i64, align 8
  %6 = alloca i8, align 1
  %7 = alloca ptr, align 8
  store ptr %0, ptr %4, align 8
  store i64 %1, ptr %5, align 8
  %8 = zext i1 %2 to i8
  store i8 %8, ptr %6, align 1
  %9 = load ptr, ptr %4, align 8
  %10 = load i64, ptr %5, align 8
  %11 = getelementptr inbounds ptr, ptr %9, i64 %10
  store ptr %11, ptr %7, align 8
  br label %12

12:                                               ; preds = %20, %3
  %13 = load ptr, ptr %4, align 8
  %14 = load ptr, ptr %7, align 8
  %15 = icmp ult ptr %13, %14
  br i1 %15, label %16, label %23

16:                                               ; preds = %12
  %17 = load ptr, ptr %4, align 8
  %18 = load i8, ptr %6, align 1
  %19 = trunc i8 %18 to i1
  call void @_ZN8XBarrier25mark_barrier_on_oop_fieldEPVP7oopDescb(ptr noundef %17, i1 noundef zeroext %19)
  br label %20

20:                                               ; preds = %16
  %21 = load ptr, ptr %4, align 8
  %22 = getelementptr inbounds ptr, ptr %21, i32 1
  store ptr %22, ptr %4, align 8
  br label %12, !llvm.loop !8

23:                                               ; preds = %12
  ret void
}

; Function Attrs: mustprogress nounwind uwtable
define hidden void @_ZN5XMark18follow_small_arrayEmmb(ptr noundef nonnull align 64 dereferenceable(2492) %0, i64 noundef %1, i64 noundef %2, i1 noundef zeroext %3) #1 align 2 {
  %5 = alloca ptr, align 8
  %6 = alloca i64, align 8
  %7 = alloca i64, align 8
  %8 = alloca i8, align 1
  %9 = alloca i64, align 8
  store ptr %0, ptr %5, align 8
  store i64 %1, ptr %6, align 8
  store i64 %2, ptr %7, align 8
  %10 = zext i1 %3 to i8
  store i8 %10, ptr %8, align 1
  %11 = load i64, ptr %7, align 8
  %12 = udiv i64 %11, 8
  store i64 %12, ptr %9, align 8
  %13 = load i64, ptr %6, align 8
  %14 = inttoptr i64 %13 to ptr
  %15 = load i64, ptr %9, align 8
  %16 = load i8, ptr %8, align 1
  %17 = trunc i8 %16 to i1
  call void @_ZN8XBarrier25mark_barrier_on_oop_arrayEPVP7oopDescmb(ptr noundef %14, i64 noundef %15, i1 noundef zeroext %17)
  ret void
}

; Function Attrs: mustprogress nounwind uwtable
define hidden void @_ZN5XMark12follow_arrayEmmb(ptr noundef nonnull align 64 dereferenceable(2492) %0, i64 noundef %1, i64 noundef %2, i1 noundef zeroext %3) #1 align 2 {
  %5 = alloca ptr, align 8
  %6 = alloca i64, align 8
  %7 = alloca i64, align 8
  %8 = alloca i8, align 1
  store ptr %0, ptr %5, align 8
  store i64 %1, ptr %6, align 8
  store i64 %2, ptr %7, align 8
  %9 = zext i1 %3 to i8
  store i8 %9, ptr %8, align 1
  %10 = load ptr, ptr %5, align 8
  %11 = load i64, ptr %7, align 8
  %12 = icmp ule i64 %11, 4096
  br i1 %12, label %13, label %18

13:                                               ; preds = %4
  %14 = load i64, ptr %6, align 8
  %15 = load i64, ptr %7, align 8
  %16 = load i8, ptr %8, align 1
  %17 = trunc i8 %16 to i1
  call void @_ZN5XMark18follow_small_arrayEmmb(ptr noundef nonnull align 64 dereferenceable(2492) %10, i64 noundef %14, i64 noundef %15, i1 noundef zeroext %17)
  br label %23

18:                                               ; preds = %4
  %19 = load i64, ptr %6, align 8
  %20 = load i64, ptr %7, align 8
  %21 = load i8, ptr %8, align 1
  %22 = trunc i8 %21 to i1
  call void @_ZN5XMark18follow_large_arrayEmmb(ptr noundef nonnull align 64 dereferenceable(2492) %10, i64 noundef %19, i64 noundef %20, i1 noundef zeroext %22)
  br label %23

23:                                               ; preds = %18, %13
  ret void
}