; Function Attrs: mustprogress nounwind uwtable
define hidden void @_ZN5XMark12follow_arrayEmmb(ptr noundef nonnull align 64 dereferenceable(2492) %0, i64 noundef %1, i64 noundef %2, i1 noundef zeroext %3) local_unnamed_addr #0 align 2 {
  %5 = icmp ult i64 %2, 4097
  br i1 %5, label %6, label %12

6:                                                ; preds = %4
  %7 = lshr i64 %2, 3
  %8 = inttoptr i64 %1 to ptr
  %9 = getelementptr inbounds ptr, ptr %8, i64 %7
  %.not.i = icmp ult i64 %2, 8
  br i1 %.not.i, label %_ZN5XMark18follow_small_arrayEmmb.exit, label %.lr.ph.i.i

.lr.ph.i.i:                                       ; preds = %6, %.lr.ph.i.i
  %.06.i.i = phi ptr [ %10, %.lr.ph.i.i ], [ %8, %6 ]
  tail call void @_ZN8XBarrier25mark_barrier_on_oop_fieldEPVP7oopDescb(ptr noundef %.06.i.i, i1 noundef zeroext %3)
  %10 = getelementptr inbounds i8, ptr %.06.i.i, i64 8
  %11 = icmp ult ptr %10, %9
  br i1 %11, label %.lr.ph.i.i, label %_ZN5XMark18follow_small_arrayEmmb.exit, !llvm.loop !8

12:                                               ; preds = %4
  tail call void @_ZN5XMark18follow_large_arrayEmmb(ptr noundef nonnull align 64 dereferenceable(2492) %0, i64 noundef %1, i64 noundef %2, i1 noundef zeroext %3)
  br label %_ZN5XMark18follow_small_arrayEmmb.exit

_ZN5XMark18follow_small_arrayEmmb.exit:           ; preds = %.lr.ph.i.i, %6, %12
  ret void
}